; Function Attrs: mustprogress uwtable
define noundef zeroext i1 @_ZNK5boost13serialization18extended_type_infoeqERKS1_(ptr noundef nonnull align 8 dereferenceable(24) %0, ptr noundef nonnull align 8 dereferenceable(24) %1) local_unnamed_addr #1 align 2 {
  %3 = icmp eq ptr %0, %1
  br i1 %3, label %14, label %4

4:                                                ; preds = %2
  %5 = getelementptr inbounds nuw i8, ptr %0, i64 8
  %6 = load i32, ptr %5, align 8, !tbaa !31
  %7 = getelementptr inbounds nuw i8, ptr %1, i64 8
  %8 = load i32, ptr %7, align 8, !tbaa !31
  %.not = icmp eq i32 %6, %8
  br i1 %.not, label %9, label %14

9:                                                ; preds = %4
  %10 = load ptr, ptr %0, align 8, !tbaa !29
  %11 = getelementptr inbounds i8, ptr %10, i64 8
  %12 = load ptr, ptr %11, align 8
  %13 = tail call noundef zeroext i1 %12(ptr noundef nonnull align 8 dereferenceable(24) %0, ptr noundef nonnull align 8 dereferenceable(24) %1)
  br label %14

14:                                               ; preds = %4, %2, %9
  %.0 = phi i1 [ %13, %9 ], [ true, %2 ], [ false, %4 ]
  ret i1 %.0
}